#include <math.h>
#include <stdio.h>
#include <stdlib.h>
#include <string.h>

int main(){
	int n,i,len,j,max=1;
	int b[500];
	char a[500];
	char c[500][5]={0};
	scanf("%d",&n);
	getchar();
	gets(a);
	len=strlen(a);
	for(i=0;i<=len-n;i++){
		b[i]=1;
		for(j=0;j<n;j++){
			c[i][j]=a[i+j];
		}
	}

	for(i=0;i<=len-n;i++){
		for(j=i+1;j<=len-n;j++){
			if(strcmp(c[j],c[i])==0){
				b[i]+=1;
				b[j]=0;
			}
		}
	}

	for(i=0;i<=len-n;i++){
		if(b[i]>max) max=b[i];
	}
	if(max==1) printf("NO");
	else{
		printf("%d\n",max);
		for(i=0;i<=len-n;i++){
			if(b[i]==max) printf("%s\n",c[i]);
		}
	}
	return 0;
}
